; ModuleID = '41/319.cpp'
source_filename = "41/319.cpp"
target datalayout = "e-m:e-p270:32:32-p271:32:32-p272:64:64-i64:64-f80:128-n8:16:32:64-S128"
target triple = "x86_64-pc-linux-gnu"

%"class.std::ios_base::Init" = type { i8 }
%"class.std::basic_ostream" = type { i32 (...)**, %"class.std::basic_ios" }
%"class.std::basic_ios" = type { %"class.std::ios_base", %"class.std::basic_ostream"*, i8, i8, %"class.std::basic_streambuf"*, %"class.std::ctype"*, %"class.std::num_put"*, %"class.std::num_get"* }
%"class.std::ios_base" = type { i32 (...)**, i64, i64, i32, i32, i32, %"struct.std::ios_base::_Callback_list"*, %"struct.std::ios_base::_Words", [8 x %"struct.std::ios_base::_Words"], i32, %"struct.std::ios_base::_Words"*, %"class.std::locale" }
%"struct.std::ios_base::_Callback_list" = type { %"struct.std::ios_base::_Callback_list"*, void (i32, %"class.std::ios_base"*, i32)*, i32, i32 }
%"struct.std::ios_base::_Words" = type { i8*, i64 }
%"class.std::locale" = type { %"class.std::locale::_Impl"* }
%"class.std::locale::_Impl" = type { i32, %"class.std::locale::facet"**, i64, %"class.std::locale::facet"**, i8** }
%"class.std::locale::facet" = type <{ i32 (...)**, i32, [4 x i8] }>
%"class.std::basic_streambuf" = type { i32 (...)**, i8*, i8*, i8*, i8*, i8*, i8*, %"class.std::locale" }
%"class.std::ctype" = type <{ %"class.std::locale::facet.base", [4 x i8], %struct.__locale_struct*, i8, [7 x i8], i32*, i32*, i16*, i8, [256 x i8], [256 x i8], i8, [6 x i8] }>
%"class.std::locale::facet.base" = type <{ i32 (...)**, i32 }>
%struct.__locale_struct = type { [13 x %struct.__locale_data*], i16*, i32*, i32*, [13 x i8*] }
%struct.__locale_data = type opaque
%"class.std::num_put" = type { %"class.std::locale::facet.base", [4 x i8] }
%"class.std::num_get" = type { %"class.std::locale::facet.base", [4 x i8] }

@_ZStL8__ioinit = internal global %"class.std::ios_base::Init" zeroinitializer, align 1
@__dso_handle = external hidden global i8
@_ZSt4cout = external dso_local global %"class.std::basic_ostream", align 8
@.str = private unnamed_addr constant [2 x i8] c" \00", align 1
@llvm.global_ctors = appending global [1 x { i32, void ()*, i8* }] [{ i32, void ()*, i8* } { i32 65535, void ()* @_GLOBAL__sub_I_319.cpp, i8* null }]

; Function Attrs: noinline uwtable
define internal void @__cxx_global_var_init() #0 section ".text.startup" {
  call void @_ZNSt8ios_base4InitC1Ev(%"class.std::ios_base::Init"* @_ZStL8__ioinit)
  %1 = call i32 @__cxa_atexit(void (i8*)* bitcast (void (%"class.std::ios_base::Init"*)* @_ZNSt8ios_base4InitD1Ev to void (i8*)*), i8* getelementptr inbounds (%"class.std::ios_base::Init", %"class.std::ios_base::Init"* @_ZStL8__ioinit, i32 0, i32 0), i8* @__dso_handle) #3
  ret void
}

declare dso_local void @_ZNSt8ios_base4InitC1Ev(%"class.std::ios_base::Init"*) unnamed_addr #1

; Function Attrs: nounwind
declare dso_local void @_ZNSt8ios_base4InitD1Ev(%"class.std::ios_base::Init"*) unnamed_addr #2

; Function Attrs: nounwind
declare dso_local i32 @__cxa_atexit(void (i8*)*, i8*, i8*) #3

; Function Attrs: noinline norecurse uwtable
define dso_local i32 @main() #4 {
  %1 = alloca i32, align 4
  %2 = alloca i32, align 4
  %3 = alloca i32, align 4
  %4 = alloca i32, align 4
  %5 = alloca i32, align 4
  %6 = alloca i32, align 4
  store i32 0, i32* %1, align 4
  store i32 1, i32* %2, align 4
  br label %7

7:                                                ; preds = %151, %0
  %8 = load i32, i32* %2, align 4
  %9 = icmp sle i32 %8, 5
  br i1 %9, label %10, label %154

10:                                               ; preds = %7
  store i32 1, i32* %3, align 4
  br label %11

11:                                               ; preds = %147, %10
  %12 = load i32, i32* %3, align 4
  %13 = icmp sle i32 %12, 5
  br i1 %13, label %14, label %150

14:                                               ; preds = %11
  store i32 1, i32* %4, align 4
  br label %15

15:                                               ; preds = %143, %14
  %16 = load i32, i32* %4, align 4
  %17 = icmp sle i32 %16, 5
  br i1 %17, label %18, label %146

18:                                               ; preds = %15
  store i32 1, i32* %5, align 4
  br label %19

19:                                               ; preds = %139, %18
  %20 = load i32, i32* %5, align 4
  %21 = icmp sle i32 %20, 5
  br i1 %21, label %22, label %142

22:                                               ; preds = %19
  store i32 1, i32* %6, align 4
  br label %23

23:                                               ; preds = %135, %22
  %24 = load i32, i32* %6, align 4
  %25 = icmp sle i32 %24, 5
  br i1 %25, label %26, label %138

26:                                               ; preds = %23
  %27 = load i32, i32* %6, align 4
  %28 = icmp ne i32 %27, 2
  br i1 %28, label %29, label %134

29:                                               ; preds = %26
  %30 = load i32, i32* %6, align 4
  %31 = icmp ne i32 %30, 3
  br i1 %31, label %32, label %134

32:                                               ; preds = %29
  %33 = load i32, i32* %2, align 4
  %34 = load i32, i32* %3, align 4
  %35 = icmp ne i32 %33, %34
  br i1 %35, label %36, label %133

36:                                               ; preds = %32
  %37 = load i32, i32* %2, align 4
  %38 = load i32, i32* %4, align 4
  %39 = icmp ne i32 %37, %38
  br i1 %39, label %40, label %133

40:                                               ; preds = %36
  %41 = load i32, i32* %2, align 4
  %42 = load i32, i32* %5, align 4
  %43 = icmp ne i32 %41, %42
  br i1 %43, label %44, label %133

44:                                               ; preds = %40
  %45 = load i32, i32* %2, align 4
  %46 = load i32, i32* %6, align 4
  %47 = icmp ne i32 %45, %46
  br i1 %47, label %48, label %133

48:                                               ; preds = %44
  %49 = load i32, i32* %3, align 4
  %50 = load i32, i32* %4, align 4
  %51 = icmp ne i32 %49, %50
  br i1 %51, label %52, label %133

52:                                               ; preds = %48
  %53 = load i32, i32* %3, align 4
  %54 = load i32, i32* %5, align 4
  %55 = icmp ne i32 %53, %54
  br i1 %55, label %56, label %133

56:                                               ; preds = %52
  %57 = load i32, i32* %3, align 4
  %58 = load i32, i32* %6, align 4
  %59 = icmp ne i32 %57, %58
  br i1 %59, label %60, label %133

60:                                               ; preds = %56
  %61 = load i32, i32* %4, align 4
  %62 = load i32, i32* %5, align 4
  %63 = icmp ne i32 %61, %62
  br i1 %63, label %64, label %133

64:                                               ; preds = %60
  %65 = load i32, i32* %4, align 4
  %66 = load i32, i32* %6, align 4
  %67 = icmp ne i32 %65, %66
  br i1 %67, label %68, label %133

68:                                               ; preds = %64
  %69 = load i32, i32* %5, align 4
  %70 = load i32, i32* %6, align 4
  %71 = icmp ne i32 %69, %70
  br i1 %71, label %72, label %133

72:                                               ; preds = %68
  %73 = load i32, i32* %6, align 4
  %74 = icmp eq i32 %73, 1
  %75 = zext i1 %74 to i32
  %76 = load i32, i32* %3, align 4
  %77 = icmp eq i32 %76, 2
  %78 = zext i1 %77 to i32
  %79 = add nsw i32 %75, %78
  %80 = load i32, i32* %2, align 4
  %81 = icmp eq i32 %80, 5
  %82 = zext i1 %81 to i32
  %83 = add nsw i32 %79, %82
  %84 = load i32, i32* %4, align 4
  %85 = icmp ne i32 %84, 1
  %86 = zext i1 %85 to i32
  %87 = add nsw i32 %83, %86
  %88 = load i32, i32* %5, align 4
  %89 = icmp eq i32 %88, 1
  %90 = zext i1 %89 to i32
  %91 = add nsw i32 %87, %90
  %92 = icmp eq i32 %91, 2
  br i1 %92, label %93, label %132

93:                                               ; preds = %72
  %94 = load i32, i32* %4, align 4
  %95 = icmp eq i32 %94, 1
  br i1 %95, label %99, label %96

96:                                               ; preds = %93
  %97 = load i32, i32* %4, align 4
  %98 = icmp eq i32 %97, 2
  br i1 %98, label %99, label %131

99:                                               ; preds = %96, %93
  %100 = load i32, i32* %5, align 4
  %101 = icmp eq i32 %100, 1
  br i1 %101, label %105, label %102

102:                                              ; preds = %99
  %103 = load i32, i32* %5, align 4
  %104 = icmp eq i32 %103, 3
  br i1 %104, label %105, label %131

105:                                              ; preds = %102, %99
  %106 = load i32, i32* %3, align 4
  %107 = icmp eq i32 %106, 2
  br i1 %107, label %111, label %108

108:                                              ; preds = %105
  %109 = load i32, i32* %3, align 4
  %110 = icmp eq i32 %109, 3
  br i1 %110, label %111, label %131

111:                                              ; preds = %108, %105
  %112 = load i32, i32* %2, align 4
  %113 = icmp eq i32 %112, 5
  br i1 %113, label %114, label %130

114:                                              ; preds = %111
  %115 = load i32, i32* %2, align 4
  %116 = call dereferenceable(272) %"class.std::basic_ostream"* @_ZNSolsEi(%"class.std::basic_ostream"* @_ZSt4cout, i32 %115)
  %117 = call dereferenceable(272) %"class.std::basic_ostream"* @_ZStlsISt11char_traitsIcEERSt13basic_ostreamIcT_ES5_PKc(%"class.std::basic_ostream"* dereferenceable(272) %116, i8* getelementptr inbounds ([2 x i8], [2 x i8]* @.str, i64 0, i64 0))
  %118 = load i32, i32* %3, align 4
  %119 = call dereferenceable(272) %"class.std::basic_ostream"* @_ZNSolsEi(%"class.std::basic_ostream"* %117, i32 %118)
  %120 = call dereferenceable(272) %"class.std::basic_ostream"* @_ZStlsISt11char_traitsIcEERSt13basic_ostreamIcT_ES5_PKc(%"class.std::basic_ostream"* dereferenceable(272) %119, i8* getelementptr inbounds ([2 x i8], [2 x i8]* @.str, i64 0, i64 0))
  %121 = load i32, i32* %4, align 4
  %122 = call dereferenceable(272) %"class.std::basic_ostream"* @_ZNSolsEi(%"class.std::basic_ostream"* %120, i32 %121)
  %123 = call dereferenceable(272) %"class.std::basic_ostream"* @_ZStlsISt11char_traitsIcEERSt13basic_ostreamIcT_ES5_PKc(%"class.std::basic_ostream"* dereferenceable(272) %122, i8* getelementptr inbounds ([2 x i8], [2 x i8]* @.str, i64 0, i64 0))
  %124 = load i32, i32* %5, align 4
  %125 = call dereferenceable(272) %"class.std::basic_ostream"* @_ZNSolsEi(%"class.std::basic_ostream"* %123, i32 %124)
  %126 = call dereferenceable(272) %"class.std::basic_ostream"* @_ZStlsISt11char_traitsIcEERSt13basic_ostreamIcT_ES5_PKc(%"class.std::basic_ostream"* dereferenceable(272) %125, i8* getelementptr inbounds ([2 x i8], [2 x i8]* @.str, i64 0, i64 0))
  %127 = load i32, i32* %6, align 4
  %128 = call dereferenceable(272) %"class.std::basic_ostream"* @_ZNSolsEi(%"class.std::basic_ostream"* %126, i32 %127)
  %129 = call dereferenceable(272) %"class.std::basic_ostream"* @_ZNSolsEPFRSoS_E(%"class.std::basic_ostream"* %128, %"class.std::basic_ostream"* (%"class.std::basic_ostream"*)* @_ZSt4endlIcSt11char_traitsIcEERSt13basic_ostreamIT_T0_ES6_)
  br label %130

130:                                              ; preds = %114, %111
  br label %131

131:                                              ; preds = %130, %108, %102, %96
  br label %132

132:                                              ; preds = %131, %72
  br label %133

133:                                              ; preds = %132, %68, %64, %60, %56, %52, %48, %44, %40, %36, %32
  br label %134

134:                                              ; preds = %133, %29, %26
  br label %135

135:                                              ; preds = %134
  %136 = load i32, i32* %6, align 4
  %137 = add nsw i32 %136, 1
  store i32 %137, i32* %6, align 4
  br label %23

138:                                              ; preds = %23
  br label %139

139:                                              ; preds = %138
  %140 = load i32, i32* %5, align 4
  %141 = add nsw i32 %140, 1
  store i32 %141, i32* %5, align 4
  br label %19

142:                                              ; preds = %19
  br label %143

143:                                              ; preds = %142
  %144 = load i32, i32* %4, align 4
  %145 = add nsw i32 %144, 1
  store i32 %145, i32* %4, align 4
  br label %15

146:                                              ; preds = %15
  br label %147

147:                                              ; preds = %146
  %148 = load i32, i32* %3, align 4
  %149 = add nsw i32 %148, 1
  store i32 %149, i32* %3, align 4
  br label %11

150:                                              ; preds = %11
  br label %151

151:                                              ; preds = %150
  %152 = load i32, i32* %2, align 4
  %153 = add nsw i32 %152, 1
  store i32 %153, i32* %2, align 4
  br label %7

154:                                              ; preds = %7
  ret i32 0
}

declare dso_local dereferenceable(272) %"class.std::basic_ostream"* @_ZStlsISt11char_traitsIcEERSt13basic_ostreamIcT_ES5_PKc(%"class.std::basic_ostream"* dereferenceable(272), i8*) #1

declare dso_local dereferenceable(272) %"class.std::basic_ostream"* @_ZNSolsEi(%"class.std::basic_ostream"*, i32) #1

declare dso_local dereferenceable(272) %"class.std::basic_ostream"* @_ZNSolsEPFRSoS_E(%"class.std::basic_ostream"*, %"class.std::basic_ostream"* (%"class.std::basic_ostream"*)*) #1

declare dso_local dereferenceable(272) %"class.std::basic_ostream"* @_ZSt4endlIcSt11char_traitsIcEERSt13basic_ostreamIT_T0_ES6_(%"class.std::basic_ostream"* dereferenceable(272)) #1

; Function Attrs: noinline uwtable
define internal void @_GLOBAL__sub_I_319.cpp() #0 section ".text.startup" {
  call void @__cxx_global_var_init()
  ret void
}


!llvm.module.flags = !{!0}
!llvm.ident = !{!1}

!0 = !{i32 1, !"wchar_size", i32 4}
!1 = !{!"clang version 10.0.0-4ubuntu1 "}
